; Function Attrs: nofree norecurse nosync nounwind memory(argmem: readwrite) uwtable
define internal void @vertical_compose_dd97iH0_10bit(ptr noundef readonly captures(none) %0, ptr noundef readonly captures(none) %1, ptr noundef captures(none) %2, ptr noundef readonly captures(none) %3, ptr noundef readonly captures(none) %4, i32 noundef %5) #3 {
  %7 = icmp sgt i32 %5, 0
  br i1 %7, label %.lr.ph.preheader, label %._crit_edge

.lr.ph.preheader:                                 ; preds = %6
  %wide.trip.count = zext nneg i32 %5 to i64
  br label %.lr.ph

.lr.ph:                                           ; preds = %.lr.ph.preheader, %.lr.ph
  %indvars.iv = phi i64 [ 0, %.lr.ph.preheader ], [ %indvars.iv.next, %.lr.ph ]
  %8 = getelementptr inbounds nuw i32, ptr %2, i64 %indvars.iv
  %9 = load i32, ptr %8, align 4, !tbaa !70
  %10 = getelementptr inbounds nuw i32, ptr %1, i64 %indvars.iv
  %11 = load i32, ptr %10, align 4, !tbaa !70
  %12 = getelementptr inbounds nuw i32, ptr %3, i64 %indvars.iv
  %13 = load i32, ptr %12, align 4, !tbaa !70
  %14 = add i32 %13, %11
  %15 = mul i32 %14, 9
  %16 = getelementptr inbounds nuw i32, ptr %4, i64 %indvars.iv
  %17 = load i32, ptr %16, align 4, !tbaa !70
  %18 = getelementptr inbounds nuw i32, ptr %0, i64 %indvars.iv
  %19 = load i32, ptr %18, align 4, !tbaa !70
  %20 = add i32 %17, %19
  %reass.sub = sub i32 %15, %20
  %21 = add i32 %reass.sub, 8
  %22 = ashr i32 %21, 4
  %23 = add i32 %22, %9
  store i32 %23, ptr %8, align 4, !tbaa !70
  %indvars.iv.next = add nuw nsw i64 %indvars.iv, 1
  %exitcond.not = icmp eq i64 %indvars.iv.next, %wide.trip.count
  br i1 %exitcond.not, label %._crit_edge, label %.lr.ph, !llvm.loop !72

._crit_edge:                                      ; preds = %.lr.ph, %6
  ret void
}